; ModuleID = 'source-C-CXX/48/298.cpp'
source_filename = "source-C-CXX/48/298.cpp"
target datalayout = "e-m:e-p270:32:32-p271:32:32-p272:64:64-i64:64-f80:128-n8:16:32:64-S128"
target triple = "x86_64-pc-linux-gnu"

%"class.std::ios_base::Init" = type { i8 }
%"class.std::basic_istream" = type { i32 (...)**, i64, %"class.std::basic_ios" }
%"class.std::basic_ios" = type { %"class.std::ios_base", %"class.std::basic_ostream"*, i8, i8, %"class.std::basic_streambuf"*, %"class.std::ctype"*, %"class.std::num_put"*, %"class.std::num_get"* }
%"class.std::ios_base" = type { i32 (...)**, i64, i64, i32, i32, i32, %"struct.std::ios_base::_Callback_list"*, %"struct.std::ios_base::_Words", [8 x %"struct.std::ios_base::_Words"], i32, %"struct.std::ios_base::_Words"*, %"class.std::locale" }
%"struct.std::ios_base::_Callback_list" = type { %"struct.std::ios_base::_Callback_list"*, void (i32, %"class.std::ios_base"*, i32)*, i32, i32 }
%"struct.std::ios_base::_Words" = type { i8*, i64 }
%"class.std::locale" = type { %"class.std::locale::_Impl"* }
%"class.std::locale::_Impl" = type { i32, %"class.std::locale::facet"**, i64, %"class.std::locale::facet"**, i8** }
%"class.std::locale::facet" = type <{ i32 (...)**, i32, [4 x i8] }>
%"class.std::basic_ostream" = type { i32 (...)**, %"class.std::basic_ios" }
%"class.std::basic_streambuf" = type { i32 (...)**, i8*, i8*, i8*, i8*, i8*, i8*, %"class.std::locale" }
%"class.std::ctype" = type <{ %"class.std::locale::facet.base", [4 x i8], %struct.__locale_struct*, i8, [7 x i8], i32*, i32*, i16*, i8, [256 x i8], [256 x i8], i8, [6 x i8] }>
%"class.std::locale::facet.base" = type <{ i32 (...)**, i32 }>
%struct.__locale_struct = type { [13 x %struct.__locale_data*], i16*, i32*, i32*, [13 x i8*] }
%struct.__locale_data = type opaque
%"class.std::num_put" = type { %"class.std::locale::facet.base", [4 x i8] }
%"class.std::num_get" = type { %"class.std::locale::facet.base", [4 x i8] }

@_ZStL8__ioinit = internal global %"class.std::ios_base::Init" zeroinitializer, align 1
@__dso_handle = external hidden global i8
@_ZSt3cin = external global %"class.std::basic_istream", align 8
@_ZSt4cout = external global %"class.std::basic_ostream", align 8
@llvm.global_ctors = appending global [1 x { i32, void ()*, i8* }] [{ i32, void ()*, i8* } { i32 65535, void ()* @_GLOBAL__sub_I_298.cpp, i8* null }]

declare void @_ZNSt8ios_base4InitC1Ev(%"class.std::ios_base::Init"* nonnull align 1 dereferenceable(1)) unnamed_addr #0

; Function Attrs: nounwind
declare void @_ZNSt8ios_base4InitD1Ev(%"class.std::ios_base::Init"* nonnull align 1 dereferenceable(1)) unnamed_addr #1

; Function Attrs: nofree nounwind
declare i32 @__cxa_atexit(void (i8*)*, i8*, i8*) local_unnamed_addr #2

; Function Attrs: mustprogress norecurse sspstrong uwtable
define dso_local i32 @main() local_unnamed_addr #3 {
  %1 = alloca i8, align 1
  %2 = alloca [600 x i8], align 16
  %3 = getelementptr inbounds [600 x i8], [600 x i8]* %2, i64 0, i64 0
  call void @llvm.lifetime.start.p0i8(i64 600, i8* nonnull %3) #8
  call void @_ZSt17__istream_extractRSiPcl(%"class.std::basic_istream"* nonnull align 8 dereferenceable(16) @_ZSt3cin, i8* nonnull %3, i64 600)
  %4 = call i64 @strlen(i8* noundef nonnull %3) #9
  %5 = trunc i64 %4 to i32
  %6 = icmp slt i32 %5, 2
  br i1 %6, label %78, label %7

7:                                                ; preds = %0, %75
  %8 = phi i32 [ %10, %75 ], [ %5, %0 ]
  %9 = phi i32 [ %76, %75 ], [ 2, %0 ]
  %10 = add i32 %8, -1
  %11 = icmp sgt i32 %9, %5
  br i1 %11, label %75, label %12

12:                                               ; preds = %7
  %13 = add nsw i32 %9, -1
  %14 = lshr i32 %13, 1
  %15 = zext i32 %14 to i64
  %16 = zext i32 %10 to i64
  br label %17

17:                                               ; preds = %71, %12
  %18 = phi i64 [ 0, %12 ], [ %72, %71 ]
  %19 = phi i32 [ %9, %12 ], [ %73, %71 ]
  %20 = add nuw nsw i64 %18, %15
  %21 = sext i32 %19 to i64
  br label %27

22:                                               ; preds = %27
  %23 = add nuw nsw i64 %28, 1
  %24 = icmp ult i64 %28, %20
  br i1 %24, label %27, label %25, !llvm.loop !5

25:                                               ; preds = %22
  %26 = zext i32 %19 to i64
  br label %36

27:                                               ; preds = %17, %22
  %28 = phi i64 [ %18, %17 ], [ %23, %22 ]
  %29 = phi i64 [ %21, %17 ], [ %30, %22 ]
  %30 = add nsw i64 %29, -1
  %31 = getelementptr inbounds [600 x i8], [600 x i8]* %2, i64 0, i64 %28
  %32 = load i8, i8* %31, align 1, !tbaa !7
  %33 = getelementptr inbounds [600 x i8], [600 x i8]* %2, i64 0, i64 %30
  %34 = load i8, i8* %33, align 1, !tbaa !7
  %35 = icmp eq i8 %32, %34
  br i1 %35, label %22, label %71

36:                                               ; preds = %25, %36
  %37 = phi i64 [ %18, %25 ], [ %41, %36 ]
  %38 = getelementptr inbounds [600 x i8], [600 x i8]* %2, i64 0, i64 %37
  %39 = load i8, i8* %38, align 1, !tbaa !7
  call void @llvm.lifetime.start.p0i8(i64 1, i8* nonnull %1)
  store i8 %39, i8* %1, align 1, !tbaa !7
  %40 = call nonnull align 8 dereferenceable(8) %"class.std::basic_ostream"* @_ZSt16__ostream_insertIcSt11char_traitsIcEERSt13basic_ostreamIT_T0_ES6_PKS3_l(%"class.std::basic_ostream"* nonnull align 8 dereferenceable(8) @_ZSt4cout, i8* nonnull %1, i64 1)
  call void @llvm.lifetime.end.p0i8(i64 1, i8* nonnull %1)
  %41 = add nuw nsw i64 %37, 1
  %42 = icmp eq i64 %41, %26
  br i1 %42, label %43, label %36, !llvm.loop !10

43:                                               ; preds = %36
  %44 = load i8*, i8** bitcast (%"class.std::basic_ostream"* @_ZSt4cout to i8**), align 8, !tbaa !11
  %45 = getelementptr i8, i8* %44, i64 -24
  %46 = bitcast i8* %45 to i64*
  %47 = load i64, i64* %46, align 8
  %48 = add nsw i64 %47, 240
  %49 = getelementptr inbounds i8, i8* bitcast (%"class.std::basic_ostream"* @_ZSt4cout to i8*), i64 %48
  %50 = bitcast i8* %49 to %"class.std::ctype"**
  %51 = load %"class.std::ctype"*, %"class.std::ctype"** %50, align 8, !tbaa !13
  %52 = icmp eq %"class.std::ctype"* %51, null
  br i1 %52, label %53, label %54

53:                                               ; preds = %43
  call void @_ZSt16__throw_bad_castv() #10
  unreachable

54:                                               ; preds = %43
  %55 = getelementptr inbounds %"class.std::ctype", %"class.std::ctype"* %51, i64 0, i32 8
  %56 = load i8, i8* %55, align 8, !tbaa !17
  %57 = icmp eq i8 %56, 0
  br i1 %57, label %61, label %58

58:                                               ; preds = %54
  %59 = getelementptr inbounds %"class.std::ctype", %"class.std::ctype"* %51, i64 0, i32 9, i64 10
  %60 = load i8, i8* %59, align 1, !tbaa !7
  br label %67

61:                                               ; preds = %54
  call void @_ZNKSt5ctypeIcE13_M_widen_initEv(%"class.std::ctype"* nonnull align 8 dereferenceable(570) %51)
  %62 = bitcast %"class.std::ctype"* %51 to i8 (%"class.std::ctype"*, i8)***
  %63 = load i8 (%"class.std::ctype"*, i8)**, i8 (%"class.std::ctype"*, i8)*** %62, align 8, !tbaa !11
  %64 = getelementptr inbounds i8 (%"class.std::ctype"*, i8)*, i8 (%"class.std::ctype"*, i8)** %63, i64 6
  %65 = load i8 (%"class.std::ctype"*, i8)*, i8 (%"class.std::ctype"*, i8)** %64, align 8
  %66 = call signext i8 %65(%"class.std::ctype"* nonnull align 8 dereferenceable(570) %51, i8 signext 10)
  br label %67

67:                                               ; preds = %58, %61
  %68 = phi i8 [ %60, %58 ], [ %66, %61 ]
  %69 = call nonnull align 8 dereferenceable(8) %"class.std::basic_ostream"* @_ZNSo3putEc(%"class.std::basic_ostream"* nonnull align 8 dereferenceable(8) @_ZSt4cout, i8 signext %68)
  %70 = call nonnull align 8 dereferenceable(8) %"class.std::basic_ostream"* @_ZNSo5flushEv(%"class.std::basic_ostream"* nonnull align 8 dereferenceable(8) %69)
  br label %71

71:                                               ; preds = %27, %67
  %72 = add nuw nsw i64 %18, 1
  %73 = add nuw i32 %19, 1
  %74 = icmp eq i64 %72, %16
  br i1 %74, label %75, label %17, !llvm.loop !19

75:                                               ; preds = %71, %7
  %76 = add nuw i32 %9, 1
  %77 = icmp eq i32 %9, %5
  br i1 %77, label %78, label %7, !llvm.loop !20

78:                                               ; preds = %75, %0
  call void @llvm.lifetime.end.p0i8(i64 600, i8* nonnull %3) #8
  ret i32 0
}

; Function Attrs: argmemonly mustprogress nofree nosync nounwind willreturn
declare void @llvm.lifetime.start.p0i8(i64 immarg, i8* nocapture) #4

; Function Attrs: argmemonly mustprogress nofree nounwind readonly willreturn
declare i64 @strlen(i8* nocapture) local_unnamed_addr #5

; Function Attrs: argmemonly mustprogress nofree nosync nounwind willreturn
declare void @llvm.lifetime.end.p0i8(i64 immarg, i8* nocapture) #4

declare void @_ZSt17__istream_extractRSiPcl(%"class.std::basic_istream"* nonnull align 8 dereferenceable(16), i8*, i64) local_unnamed_addr #0

declare nonnull align 8 dereferenceable(8) %"class.std::basic_ostream"* @_ZSt16__ostream_insertIcSt11char_traitsIcEERSt13basic_ostreamIT_T0_ES6_PKS3_l(%"class.std::basic_ostream"* nonnull align 8 dereferenceable(8), i8*, i64) local_unnamed_addr #0

declare nonnull align 8 dereferenceable(8) %"class.std::basic_ostream"* @_ZNSo3putEc(%"class.std::basic_ostream"* nonnull align 8 dereferenceable(8), i8 signext) local_unnamed_addr #0

declare nonnull align 8 dereferenceable(8) %"class.std::basic_ostream"* @_ZNSo5flushEv(%"class.std::basic_ostream"* nonnull align 8 dereferenceable(8)) local_unnamed_addr #0

; Function Attrs: noreturn
declare void @_ZSt16__throw_bad_castv() local_unnamed_addr #6

declare void @_ZNKSt5ctypeIcE13_M_widen_initEv(%"class.std::ctype"* nonnull align 8 dereferenceable(570)) local_unnamed_addr #0

; Function Attrs: sspstrong uwtable
define internal void @_GLOBAL__sub_I_298.cpp() #7 section ".text.startup" {
  tail call void @_ZNSt8ios_base4InitC1Ev(%"class.std::ios_base::Init"* nonnull align 1 dereferenceable(1) @_ZStL8__ioinit)
  %1 = tail call i32 @__cxa_atexit(void (i8*)* bitcast (void (%"class.std::ios_base::Init"*)* @_ZNSt8ios_base4InitD1Ev to void (i8*)*), i8* getelementptr inbounds (%"class.std::ios_base::Init", %"class.std::ios_base::Init"* @_ZStL8__ioinit, i64 0, i32 0), i8* nonnull @__dso_handle) #8
  ret void
}


!llvm.module.flags = !{!0, !1, !2, !3}
!llvm.ident = !{!4}

!0 = !{i32 1, !"wchar_size", i32 4}
!1 = !{i32 7, !"PIC Level", i32 2}
!2 = !{i32 7, !"PIE Level", i32 2}
!3 = !{i32 7, !"uwtable", i32 1}
!4 = !{!"clang version 13.0.0"}
!5 = distinct !{!5, !6}
!6 = !{!"llvm.loop.mustprogress"}
!7 = !{!8, !8, i64 0}
!8 = !{!"omnipotent char", !9, i64 0}
!9 = !{!"Simple C++ TBAA"}
!10 = distinct !{!10, !6}
!11 = !{!12, !12, i64 0}
!12 = !{!"vtable pointer", !9, i64 0}
!13 = !{!14, !15, i64 240}
!14 = !{!"_ZTSSt9basic_iosIcSt11char_traitsIcEE", !15, i64 216, !8, i64 224, !16, i64 225, !15, i64 232, !15, i64 240, !15, i64 248, !15, i64 256}
!15 = !{!"any pointer", !8, i64 0}
!16 = !{!"bool", !8, i64 0}
!17 = !{!18, !8, i64 56}
!18 = !{!"_ZTSSt5ctypeIcE", !15, i64 16, !16, i64 24, !15, i64 32, !15, i64 40, !15, i64 48, !8, i64 56, !8, i64 57, !8, i64 313, !8, i64 569}
!19 = distinct !{!19, !6}
!20 = distinct !{!20, !6}
